target datalayout = "e-m:e-p270:32:32-p271:32:32-p272:64:64-i64:64-i128:128-f80:128-n8:16:32:64-S128"
target triple = "x86_64-pc-linux-gnu"

%struct._typeobject = type { %struct.PyVarObject, ptr, i64, i64, ptr, i64, ptr, ptr, ptr, ptr, ptr, ptr, ptr, ptr, ptr, ptr, ptr, ptr, ptr, i64, ptr, ptr, ptr, ptr, i64, ptr, ptr, ptr, ptr, ptr, ptr, ptr, ptr, ptr, i64, ptr, ptr, ptr, ptr, ptr, ptr, ptr, ptr, ptr, ptr, ptr, i32, ptr, ptr, i8, i16 }
%struct.PyVarObject = type { %struct._object, i64 }
%struct._object = type { %union.anon, ptr }
%union.anon = type { i64 }
%struct._longobject = type { %struct._object, %struct._PyLongValue }
%struct._PyLongValue = type { i64, [1 x i32] }
%struct.anon = type { i32, i32 }

@PySet_Type = external global %struct._typeobject, align 8
@PyFrozenSet_Type = external global %struct._typeobject, align 8
@_Py_NotImplementedStruct = external global %struct._object, align 8
@_Py_TrueStruct = external global %struct._longobject, align 8
@_Py_FalseStruct = external global %struct._longobject, align 8

; Function Attrs: alwaysinline nounwind uwtable
define internal void @Py_INCREF(ptr noundef %0) #6 {
  %2 = alloca ptr, align 8
  %3 = alloca i32, align 4
  %4 = alloca i32, align 4
  store ptr %0, ptr %2, align 8, !tbaa !27
  call void @llvm.lifetime.start.p0(i64 4, ptr %3) #10
  %5 = load ptr, ptr %2, align 8, !tbaa !27
  %6 = getelementptr inbounds nuw %struct._object, ptr %5, i32 0, i32 0
  %7 = getelementptr inbounds nuw %struct.anon, ptr %6, i32 0, i32 0
  %8 = load i32, ptr %7, align 8, !tbaa !38
  store i32 %8, ptr %3, align 4, !tbaa !28
  %9 = load i32, ptr %3, align 4, !tbaa !28
  %10 = icmp slt i32 %9, 0
  br i1 %10, label %11, label %12

11:                                               ; preds = %1
  store i32 1, ptr %4, align 4
  br label %18

12:                                               ; preds = %1
  %13 = load i32, ptr %3, align 4, !tbaa !28
  %14 = add i32 %13, 1
  %15 = load ptr, ptr %2, align 8, !tbaa !27
  %16 = getelementptr inbounds nuw %struct._object, ptr %15, i32 0, i32 0
  %17 = getelementptr inbounds nuw %struct.anon, ptr %16, i32 0, i32 0
  store i32 %14, ptr %17, align 8, !tbaa !38
  store i32 0, ptr %4, align 4
  br label %18

18:                                               ; preds = %12, %11
  call void @llvm.lifetime.end.p0(i64 4, ptr %3) #10
  %19 = load i32, ptr %4, align 4
  switch i32 %19, label %21 [
    i32 0, label %20
    i32 1, label %20
  ]

20:                                               ; preds = %18, %18
  ret void

21:                                               ; preds = %18
  unreachable
}

; Function Attrs: inlinehint nounwind uwtable
define internal ptr @_Py_NewRef(ptr noundef %0) #2 {
  %2 = alloca ptr, align 8
  store ptr %0, ptr %2, align 8, !tbaa !27
  %3 = load ptr, ptr %2, align 8, !tbaa !27
  call void @Py_INCREF(ptr noundef %3)
  %4 = load ptr, ptr %2, align 8, !tbaa !27
  ret ptr %4
}

; Function Attrs: inlinehint nounwind uwtable
define internal i32 @PyObject_TypeCheck(ptr noundef %0, ptr noundef %1) #2 {
  %3 = alloca ptr, align 8
  %4 = alloca ptr, align 8
  store ptr %0, ptr %3, align 8, !tbaa !27
  store ptr %1, ptr %4, align 8, !tbaa !56
  %5 = load ptr, ptr %3, align 8, !tbaa !27
  %6 = load ptr, ptr %4, align 8, !tbaa !56
  %7 = call i32 @Py_IS_TYPE(ptr noundef %5, ptr noundef %6)
  %8 = icmp ne i32 %7, 0
  br i1 %8, label %15, label %9

9:                                                ; preds = %2
  %10 = load ptr, ptr %3, align 8, !tbaa !27
  %11 = call ptr @_Py_TYPE(ptr noundef %10)
  %12 = load ptr, ptr %4, align 8, !tbaa !56
  %13 = call i32 @PyType_IsSubtype(ptr noundef %11, ptr noundef %12)
  %14 = icmp ne i32 %13, 0
  br label %15

15:                                               ; preds = %9, %2
  %16 = phi i1 [ true, %2 ], [ %14, %9 ]
  %17 = zext i1 %16 to i32
  ret i32 %17
}

; Function Attrs: inlinehint nounwind uwtable
define internal ptr @_Py_TYPE(ptr noundef %0) #2 {
  %2 = alloca ptr, align 8
  store ptr %0, ptr %2, align 8, !tbaa !27
  %3 = load ptr, ptr %2, align 8, !tbaa !27
  %4 = getelementptr inbounds nuw %struct._object, ptr %3, i32 0, i32 1
  %5 = load ptr, ptr %4, align 8, !tbaa !65
  ret ptr %5
}

; Function Attrs: inlinehint nounwind uwtable
define internal i32 @Py_IS_TYPE(ptr noundef %0, ptr noundef %1) #2 {
  %3 = alloca ptr, align 8
  %4 = alloca ptr, align 8
  store ptr %0, ptr %3, align 8, !tbaa !27
  store ptr %1, ptr %4, align 8, !tbaa !56
  %5 = load ptr, ptr %3, align 8, !tbaa !27
  %6 = call ptr @_Py_TYPE(ptr noundef %5)
  %7 = load ptr, ptr %4, align 8, !tbaa !56
  %8 = icmp eq ptr %6, %7
  %9 = zext i1 %8 to i32
  ret i32 %9
}

; Function Attrs: nounwind uwtable
define internal ptr @dictview_richcompare(ptr noundef %0, ptr noundef %1, i32 noundef %2) #0 {
  %4 = alloca ptr, align 8
  %5 = alloca ptr, align 8
  %6 = alloca ptr, align 8
  %7 = alloca i32, align 4
  %8 = alloca i64, align 8
  %9 = alloca i64, align 8
  %10 = alloca i32, align 4
  %11 = alloca ptr, align 8
  %12 = alloca i32, align 4
  store ptr %0, ptr %5, align 8, !tbaa !27
  store ptr %1, ptr %6, align 8, !tbaa !27
  store i32 %2, ptr %7, align 4, !tbaa !28
  call void @llvm.lifetime.start.p0(i64 8, ptr %8) #10
  call void @llvm.lifetime.start.p0(i64 8, ptr %9) #10
  call void @llvm.lifetime.start.p0(i64 4, ptr %10) #10
  call void @llvm.lifetime.start.p0(i64 8, ptr %11) #10
  %13 = load ptr, ptr %6, align 8, !tbaa !27
  %14 = call i32 @Py_IS_TYPE(ptr noundef %13, ptr noundef @PySet_Type)
  %15 = icmp ne i32 %14, 0
  br i1 %15, label %39, label %16

16:                                               ; preds = %3
  %17 = load ptr, ptr %6, align 8, !tbaa !27
  %18 = call i32 @Py_IS_TYPE(ptr noundef %17, ptr noundef @PyFrozenSet_Type)
  %19 = icmp ne i32 %18, 0
  br i1 %19, label %39, label %20

20:                                               ; preds = %16
  %21 = load ptr, ptr %6, align 8, !tbaa !27
  %22 = call ptr @_Py_TYPE(ptr noundef %21)
  %23 = call i32 @PyType_IsSubtype(ptr noundef %22, ptr noundef @PySet_Type)
  %24 = icmp ne i32 %23, 0
  br i1 %24, label %39, label %25

25:                                               ; preds = %20
  %26 = load ptr, ptr %6, align 8, !tbaa !27
  %27 = call ptr @_Py_TYPE(ptr noundef %26)
  %28 = call i32 @PyType_IsSubtype(ptr noundef %27, ptr noundef @PyFrozenSet_Type)
  %29 = icmp ne i32 %28, 0
  br i1 %29, label %39, label %30

30:                                               ; preds = %25
  %31 = load ptr, ptr %6, align 8, !tbaa !27
  %32 = call i32 @PyObject_TypeCheck(ptr noundef %31, ptr noundef @PyDictKeys_Type)
  %33 = icmp ne i32 %32, 0
  br i1 %33, label %39, label %34

34:                                               ; preds = %30
  %35 = load ptr, ptr %6, align 8, !tbaa !27
  %36 = call i32 @PyObject_TypeCheck(ptr noundef %35, ptr noundef @PyDictItems_Type)
  %37 = icmp ne i32 %36, 0
  br i1 %37, label %39, label %38

38:                                               ; preds = %34
  store ptr @_Py_NotImplementedStruct, ptr %4, align 8
  store i32 1, ptr %12, align 4
  br label %119

39:                                               ; preds = %34, %30, %25, %20, %16, %3
  %40 = load ptr, ptr %5, align 8, !tbaa !27
  %41 = call i64 @PyObject_Size(ptr noundef %40)
  store i64 %41, ptr %8, align 8, !tbaa !39
  %42 = load i64, ptr %8, align 8, !tbaa !39
  %43 = icmp slt i64 %42, 0
  br i1 %43, label %44, label %45

44:                                               ; preds = %39
  store ptr null, ptr %4, align 8
  store i32 1, ptr %12, align 4
  br label %119

45:                                               ; preds = %39
  %46 = load ptr, ptr %6, align 8, !tbaa !27
  %47 = call i64 @PyObject_Size(ptr noundef %46)
  store i64 %47, ptr %9, align 8, !tbaa !39
  %48 = load i64, ptr %9, align 8, !tbaa !39
  %49 = icmp slt i64 %48, 0
  br i1 %49, label %50, label %51

50:                                               ; preds = %45
  store ptr null, ptr %4, align 8
  store i32 1, ptr %12, align 4
  br label %119

51:                                               ; preds = %45
  store i32 0, ptr %10, align 4, !tbaa !28
  %52 = load i32, ptr %7, align 4, !tbaa !28
  switch i32 %52, label %109 [
    i32 3, label %53
    i32 2, label %53
    i32 0, label %73
    i32 1, label %82
    i32 4, label %91
    i32 5, label %100
  ]

53:                                               ; preds = %51, %51
  %54 = load i64, ptr %8, align 8, !tbaa !39
  %55 = load i64, ptr %9, align 8, !tbaa !39
  %56 = icmp eq i64 %54, %55
  br i1 %56, label %57, label %61

57:                                               ; preds = %53
  %58 = load ptr, ptr %5, align 8, !tbaa !27
  %59 = load ptr, ptr %6, align 8, !tbaa !27
  %60 = call i32 @all_contained_in(ptr noundef %58, ptr noundef %59)
  store i32 %60, ptr %10, align 4, !tbaa !28
  br label %61

61:                                               ; preds = %57, %53
  %62 = load i32, ptr %7, align 4, !tbaa !28
  %63 = icmp eq i32 %62, 3
  br i1 %63, label %64, label %72

64:                                               ; preds = %61
  %65 = load i32, ptr %10, align 4, !tbaa !28
  %66 = icmp sge i32 %65, 0
  br i1 %66, label %67, label %72

67:                                               ; preds = %64
  %68 = load i32, ptr %10, align 4, !tbaa !28
  %69 = icmp ne i32 %68, 0
  %70 = xor i1 %69, true
  %71 = zext i1 %70 to i32
  store i32 %71, ptr %10, align 4, !tbaa !28
  br label %72

72:                                               ; preds = %67, %64, %61
  br label %109

73:                                               ; preds = %51
  %74 = load i64, ptr %8, align 8, !tbaa !39
  %75 = load i64, ptr %9, align 8, !tbaa !39
  %76 = icmp slt i64 %74, %75
  br i1 %76, label %77, label %81

77:                                               ; preds = %73
  %78 = load ptr, ptr %5, align 8, !tbaa !27
  %79 = load ptr, ptr %6, align 8, !tbaa !27
  %80 = call i32 @all_contained_in(ptr noundef %78, ptr noundef %79)
  store i32 %80, ptr %10, align 4, !tbaa !28
  br label %81

81:                                               ; preds = %77, %73
  br label %109

82:                                               ; preds = %51
  %83 = load i64, ptr %8, align 8, !tbaa !39
  %84 = load i64, ptr %9, align 8, !tbaa !39
  %85 = icmp sle i64 %83, %84
  br i1 %85, label %86, label %90

86:                                               ; preds = %82
  %87 = load ptr, ptr %5, align 8, !tbaa !27
  %88 = load ptr, ptr %6, align 8, !tbaa !27
  %89 = call i32 @all_contained_in(ptr noundef %87, ptr noundef %88)
  store i32 %89, ptr %10, align 4, !tbaa !28
  br label %90

90:                                               ; preds = %86, %82
  br label %109

91:                                               ; preds = %51
  %92 = load i64, ptr %8, align 8, !tbaa !39
  %93 = load i64, ptr %9, align 8, !tbaa !39
  %94 = icmp sgt i64 %92, %93
  br i1 %94, label %95, label %99

95:                                               ; preds = %91
  %96 = load ptr, ptr %6, align 8, !tbaa !27
  %97 = load ptr, ptr %5, align 8, !tbaa !27
  %98 = call i32 @all_contained_in(ptr noundef %96, ptr noundef %97)
  store i32 %98, ptr %10, align 4, !tbaa !28
  br label %99

99:                                               ; preds = %95, %91
  br label %109

100:                                              ; preds = %51
  %101 = load i64, ptr %8, align 8, !tbaa !39
  %102 = load i64, ptr %9, align 8, !tbaa !39
  %103 = icmp sge i64 %101, %102
  br i1 %103, label %104, label %108

104:                                              ; preds = %100
  %105 = load ptr, ptr %6, align 8, !tbaa !27
  %106 = load ptr, ptr %5, align 8, !tbaa !27
  %107 = call i32 @all_contained_in(ptr noundef %105, ptr noundef %106)
  store i32 %107, ptr %10, align 4, !tbaa !28
  br label %108

108:                                              ; preds = %104, %100
  br label %109

109:                                              ; preds = %51, %108, %99, %90, %81, %72
  %110 = load i32, ptr %10, align 4, !tbaa !28
  %111 = icmp slt i32 %110, 0
  br i1 %111, label %112, label %113

112:                                              ; preds = %109
  store ptr null, ptr %4, align 8
  store i32 1, ptr %12, align 4
  br label %119

113:                                              ; preds = %109
  %114 = load i32, ptr %10, align 4, !tbaa !28
  %115 = icmp ne i32 %114, 0
  %116 = select i1 %115, ptr @_Py_TrueStruct, ptr @_Py_FalseStruct
  store ptr %116, ptr %11, align 8, !tbaa !27
  %117 = load ptr, ptr %11, align 8, !tbaa !27
  %118 = call ptr @_Py_NewRef(ptr noundef %117)
  store ptr %118, ptr %4, align 8
  store i32 1, ptr %12, align 4
  br label %119

119:                                              ; preds = %113, %112, %50, %44, %38
  call void @llvm.lifetime.end.p0(i64 8, ptr %11) #10
  call void @llvm.lifetime.end.p0(i64 4, ptr %10) #10
  call void @llvm.lifetime.end.p0(i64 8, ptr %9) #10
  call void @llvm.lifetime.end.p0(i64 8, ptr %8) #10
  %120 = load ptr, ptr %4, align 8
  ret ptr %120
}