; Function Attrs: nounwind uwtable
define internal noundef ptr @dictview_richcompare(ptr noundef %0, ptr noundef %1, i32 noundef %2) #0 {
  %4 = getelementptr i8, ptr %1, i64 8
  %.val52 = load ptr, ptr %4, align 8, !tbaa !25
  %.not = icmp eq ptr %.val52, @PySet_Type
  %.not64 = icmp eq ptr %.val52, @PyFrozenSet_Type
  %or.cond67 = or i1 %.not, %.not64
  br i1 %or.cond67, label %PyObject_TypeCheck.exit.thread, label %5

5:                                                ; preds = %3
  %6 = tail call i32 @PyType_IsSubtype(ptr noundef %.val52, ptr noundef nonnull @PySet_Type) #23
  %.not42 = icmp eq i32 %6, 0
  br i1 %.not42, label %7, label %PyObject_TypeCheck.exit.thread

7:                                                ; preds = %5
  %.val = load ptr, ptr %4, align 8, !tbaa !25
  %8 = tail call i32 @PyType_IsSubtype(ptr noundef %.val, ptr noundef nonnull @PyFrozenSet_Type) #23
  %.not43 = icmp eq i32 %8, 0
  br i1 %.not43, label %9, label %PyObject_TypeCheck.exit.thread

9:                                                ; preds = %7
  %.val54 = load ptr, ptr %4, align 8, !tbaa !25
  %.not.i = icmp eq ptr %.val54, @PyDictKeys_Type
  br i1 %.not.i, label %PyObject_TypeCheck.exit.thread, label %PyObject_TypeCheck.exit

PyObject_TypeCheck.exit:                          ; preds = %9
  %10 = tail call i32 @PyType_IsSubtype(ptr noundef %.val54, ptr noundef nonnull @PyDictKeys_Type) #23
  %.not65 = icmp eq i32 %10, 0
  br i1 %.not65, label %11, label %PyObject_TypeCheck.exit.thread

11:                                               ; preds = %PyObject_TypeCheck.exit
  %.val53 = load ptr, ptr %4, align 8, !tbaa !25
  %.not.i55 = icmp eq ptr %.val53, @PyDictItems_Type
  br i1 %.not.i55, label %PyObject_TypeCheck.exit.thread, label %PyObject_TypeCheck.exit56

PyObject_TypeCheck.exit56:                        ; preds = %11
  %12 = tail call i32 @PyType_IsSubtype(ptr noundef %.val53, ptr noundef nonnull @PyDictItems_Type) #23
  %.not66 = icmp eq i32 %12, 0
  br i1 %.not66, label %_Py_NewRef.exit, label %PyObject_TypeCheck.exit.thread

PyObject_TypeCheck.exit.thread:                   ; preds = %11, %9, %PyObject_TypeCheck.exit56, %PyObject_TypeCheck.exit, %7, %5, %3
  %13 = tail call i64 @PyObject_Size(ptr noundef %0) #23
  %14 = icmp slt i64 %13, 0
  br i1 %14, label %_Py_NewRef.exit, label %15

15:                                               ; preds = %PyObject_TypeCheck.exit.thread
  %16 = tail call i64 @PyObject_Size(ptr noundef nonnull %1) #23
  %17 = icmp slt i64 %16, 0
  br i1 %17, label %_Py_NewRef.exit, label %18

18:                                               ; preds = %15
  switch i32 %2, label %.thread.thread [
    i32 3, label %19
    i32 2, label %19
    i32 0, label %28
    i32 1, label %32
    i32 4, label %35
    i32 5, label %39
  ]

19:                                               ; preds = %18, %18
  %20 = icmp eq i64 %13, %16
  br i1 %20, label %21, label %23

21:                                               ; preds = %19
  %22 = tail call fastcc i32 @all_contained_in(ptr noundef %0, ptr noundef nonnull %1)
  br label %23

23:                                               ; preds = %21, %19
  %.1 = phi i32 [ %22, %21 ], [ 0, %19 ]
  %24 = icmp eq i32 %2, 3
  %25 = icmp sgt i32 %.1, -1
  %or.cond = select i1 %24, i1 %25, i1 false
  br i1 %or.cond, label %26, label %42

26:                                               ; preds = %23
  %.not48 = icmp eq i32 %.1, 0
  %27 = zext i1 %.not48 to i32
  br label %.thread

28:                                               ; preds = %18
  %29 = icmp samesign ult i64 %13, %16
  br i1 %29, label %30, label %.thread.thread

30:                                               ; preds = %28
  %31 = tail call fastcc i32 @all_contained_in(ptr noundef %0, ptr noundef nonnull %1)
  br label %42

32:                                               ; preds = %18
  %.not47 = icmp samesign ugt i64 %13, %16
  br i1 %.not47, label %.thread.thread, label %33

33:                                               ; preds = %32
  %34 = tail call fastcc i32 @all_contained_in(ptr noundef %0, ptr noundef nonnull %1)
  br label %42

35:                                               ; preds = %18
  %36 = icmp samesign ugt i64 %13, %16
  br i1 %36, label %37, label %.thread.thread

37:                                               ; preds = %35
  %38 = tail call fastcc i32 @all_contained_in(ptr noundef nonnull %1, ptr noundef %0)
  br label %42

39:                                               ; preds = %18
  %.not46 = icmp samesign ult i64 %13, %16
  br i1 %.not46, label %.thread.thread, label %40

40:                                               ; preds = %39
  %41 = tail call fastcc i32 @all_contained_in(ptr noundef nonnull %1, ptr noundef %0)
  br label %42

42:                                               ; preds = %40, %37, %33, %30, %23
  %.038 = phi i32 [ %41, %40 ], [ %38, %37 ], [ %34, %33 ], [ %31, %30 ], [ %.1, %23 ]
  %43 = icmp slt i32 %.038, 0
  br i1 %43, label %_Py_NewRef.exit, label %.thread

.thread:                                          ; preds = %26, %42
  %.03860 = phi i32 [ %.038, %42 ], [ %27, %26 ]
  %.03860.fr = freeze i32 %.03860
  %.not49 = icmp eq i32 %.03860.fr, 0
  br i1 %.not49, label %.thread.thread, label %44

.thread.thread:                                   ; preds = %18, %39, %35, %32, %28, %.thread
  br label %44

44:                                               ; preds = %.thread, %.thread.thread
  %45 = phi ptr [ @_Py_FalseStruct, %.thread.thread ], [ @_Py_TrueStruct, %.thread ]
  %46 = load i32, ptr %45, align 8, !tbaa !41
  %47 = icmp slt i32 %46, 0
  br i1 %47, label %_Py_NewRef.exit, label %48

48:                                               ; preds = %44
  %49 = add nuw i32 %46, 1
  store i32 %49, ptr %45, align 8, !tbaa !41
  br label %_Py_NewRef.exit

_Py_NewRef.exit:                                  ; preds = %48, %44, %42, %15, %PyObject_TypeCheck.exit.thread, %PyObject_TypeCheck.exit56
  %.0 = phi ptr [ @_Py_NotImplementedStruct, %PyObject_TypeCheck.exit56 ], [ null, %PyObject_TypeCheck.exit.thread ], [ null, %15 ], [ null, %42 ], [ %45, %44 ], [ %45, %48 ]
  ret ptr %.0
}